target datalayout = "e-m:e-p270:32:32-p271:32:32-p272:64:64-i64:64-i128:128-f80:128-n8:16:32:64-S128"
target triple = "x86_64-pc-linux-gnu"

@print_sha1_ellipsis.cached_result = internal global i32 -1, align 4
@.str.24 = private unnamed_addr constant [24 x i8] c"GIT_PRINT_SHA1_ELLIPSIS\00", align 1
@.str.25 = private unnamed_addr constant [4 x i8] c"yes\00", align 1

; Function Attrs: nounwind uwtable
define dso_local i32 @print_sha1_ellipsis() #0 {
  %1 = alloca ptr, align 8
  %2 = load i32, ptr @print_sha1_ellipsis.cached_result, align 4, !tbaa !16
  %3 = icmp slt i32 %2, 0
  br i1 %3, label %4, label %16

4:                                                ; preds = %0
  call void @llvm.lifetime.start.p0(i64 8, ptr %1) #8
  %5 = call ptr @getenv(ptr noundef @.str.24) #8
  store ptr %5, ptr %1, align 8, !tbaa !9
  %6 = load ptr, ptr %1, align 8, !tbaa !9
  %7 = icmp ne ptr %6, null
  br i1 %7, label %8, label %13

8:                                                ; preds = %4
  %9 = load ptr, ptr %1, align 8, !tbaa !9
  %10 = call i32 @strcasecmp(ptr noundef %9, ptr noundef @.str.25) #9
  %11 = icmp ne i32 %10, 0
  %12 = xor i1 %11, true
  br label %13

13:                                               ; preds = %8, %4
  %14 = phi i1 [ false, %4 ], [ %12, %8 ]
  %15 = zext i1 %14 to i32
  store i32 %15, ptr @print_sha1_ellipsis.cached_result, align 4, !tbaa !16
  call void @llvm.lifetime.end.p0(i64 8, ptr %1) #8
  br label %16

16:                                               ; preds = %13, %0
  %17 = load i32, ptr @print_sha1_ellipsis.cached_result, align 4, !tbaa !16
  ret i32 %17
}