; Function Attrs: nofree nounwind memory(readwrite, argmem: read, inaccessiblemem: read) uwtable
define dso_local range(i32 0, 2) i32 @print_sha1_ellipsis() local_unnamed_addr #10 {
  %1 = load i32, ptr @print_sha1_ellipsis.cached_result, align 4, !tbaa !14
  %2 = icmp slt i32 %1, 0
  br i1 %2, label %3, label %10

3:                                                ; preds = %0
  %4 = tail call ptr @getenv(ptr noundef nonnull @.str.24) #14
  %.not = icmp eq ptr %4, null
  br i1 %.not, label %8, label %5

5:                                                ; preds = %3
  %6 = tail call i32 @strcasecmp(ptr noundef nonnull %4, ptr noundef nonnull @.str.25) #15
  %.not2 = icmp eq i32 %6, 0
  %7 = zext i1 %.not2 to i32
  br label %8

8:                                                ; preds = %5, %3
  %9 = phi i32 [ 0, %3 ], [ %7, %5 ]
  store i32 %9, ptr @print_sha1_ellipsis.cached_result, align 4, !tbaa !14
  br label %10

10:                                               ; preds = %8, %0
  %11 = phi i32 [ %9, %8 ], [ %1, %0 ]
  ret i32 %11
}